target datalayout = "e-m:e-p270:32:32-p271:32:32-p272:64:64-i64:64-i128:128-f80:128-n8:16:32:64-S128"
target triple = "x86_64-pc-linux-gnu"

%struct.cl_engine = type { i32, i32, i32, [2 x i32], i32, i32, i32, ptr, i32, i64, i32, i32, i64, i64, i32, i32, i32, i32, ptr, ptr, ptr, ptr, ptr, ptr, ptr, ptr, ptr, ptr, ptr, ptr, ptr, ptr, ptr, ptr, ptr, ptr, ptr, i64, ptr, %struct.crtmgr, ptr, ptr, ptr, ptr, ptr, ptr, ptr, ptr, ptr, ptr, ptr, ptr, ptr, ptr, ptr, ptr, ptr, %struct.cli_all_bc, [7 x ptr], [7 x i32], i32, i32, i32, i32, i64, i64, i64, i64, i64, ptr, ptr, ptr, ptr, ptr, ptr, ptr, ptr, ptr, i32, i32, i32, i64, i64, i64, ptr }
%struct.crtmgr = type { ptr, i32 }
%struct.cli_all_bc = type { ptr, i32, ptr, %struct.cli_environment, i32 }
%struct.cli_environment = type { i32, i32, i32, i32, i32, i32, i32, [65 x i8], [65 x i8], [65 x i8], [65 x i8], [65 x i8], [65 x i8], [65 x i8], i8, i8, i8, i8, i8, i8, i8, i8, i8 }
%struct.CACHE = type { %struct.cache_set, i32, i32, %union.pthread_mutex_t }
%struct.cache_set = type { ptr, ptr, ptr, ptr }
%union.pthread_mutex_t = type { %struct.__pthread_mutex_s }
%struct.__pthread_mutex_s = type { i32, i32, i32, i32, i32, i16, i16, %struct.__pthread_internal_list }
%struct.__pthread_internal_list = type { ptr, ptr }
%struct.node = type { [2 x i64], ptr, ptr, ptr, ptr, ptr, i32, i32 }
%struct.cli_ctx_tag = type { ptr, ptr, ptr, ptr, ptr, ptr, ptr, i64, ptr, i32, i32, ptr, i32, i32, ptr, [16 x i8], ptr, ptr, ptr, ptr, ptr, ptr, %struct.timeval, i8, i8 }
%struct.timeval = type { i64, i64 }
%struct.cl_scan_options = type { i32, i32, i32, i32, i32 }

@.str.15 = private unnamed_addr constant [69 x i8] c"clean_cache_check: collect metadata feature enabled, skipping cache\0A\00", align 1
@.str.16 = private unnamed_addr constant [58 x i8] c"clean_cache_check: Caching disabled. Returning CL_VIRUS.\0A\00", align 1
@.str.17 = private unnamed_addr constant [91 x i8] c"clean_cache_check: %02x%02x%02x%02x%02x%02x%02x%02x%02x%02x%02x%02x%02x%02x%02x%02x is %s\0A\00", align 1
@.str.18 = private unnamed_addr constant [9 x i8] c"negative\00", align 1
@.str.19 = private unnamed_addr constant [9 x i8] c"positive\00", align 1
@.str.24 = private unnamed_addr constant [54 x i8] c"cache_lookup: No hash available. Nothing to look up.\0A\00", align 1
@.str.25 = private unnamed_addr constant [55 x i8] c"cache_lookup_hash: cache_lookup_hash: mutex lock fail\0A\00", align 1

; Function Attrs: nounwind uwtable
define internal i32 @cacheset_lookup(ptr noundef %0, ptr noundef %1, i64 noundef %2, i32 noundef %3) #0 {
  %5 = alloca i32, align 4
  %6 = alloca ptr, align 8
  %7 = alloca ptr, align 8
  %8 = alloca i64, align 8
  %9 = alloca i32, align 4
  %10 = alloca [2 x i64], align 16
  %11 = alloca ptr, align 8
  %12 = alloca ptr, align 8
  %13 = alloca ptr, align 8
  store ptr %0, ptr %6, align 8
  store ptr %1, ptr %7, align 8
  store i64 %2, ptr %8, align 8
  store i32 %3, ptr %9, align 4
  %14 = getelementptr inbounds [2 x i64], ptr %10, i64 0, i64 0
  %15 = load ptr, ptr %7, align 8
  call void @llvm.memcpy.p0.p0.i64(ptr align 16 %14, ptr align 1 %15, i64 16, i1 false)
  %16 = getelementptr inbounds [2 x i64], ptr %10, i64 0, i64 0
  %17 = load i64, ptr %8, align 8
  %18 = load ptr, ptr %6, align 8
  %19 = call i32 @splay(ptr noundef %16, i64 noundef %17, ptr noundef %18)
  %20 = icmp ne i32 %19, 0
  br i1 %20, label %21, label %75

21:                                               ; preds = %4
  %22 = load ptr, ptr %6, align 8
  %23 = getelementptr inbounds %struct.cache_set, ptr %22, i32 0, i32 1
  %24 = load ptr, ptr %23, align 8
  %25 = getelementptr inbounds %struct.node, ptr %24, i32 0, i32 5
  %26 = load ptr, ptr %25, align 8
  store ptr %26, ptr %11, align 8
  %27 = load ptr, ptr %6, align 8
  %28 = getelementptr inbounds %struct.cache_set, ptr %27, i32 0, i32 1
  %29 = load ptr, ptr %28, align 8
  store ptr %29, ptr %12, align 8
  %30 = load ptr, ptr %6, align 8
  %31 = getelementptr inbounds %struct.cache_set, ptr %30, i32 0, i32 1
  %32 = load ptr, ptr %31, align 8
  %33 = getelementptr inbounds %struct.node, ptr %32, i32 0, i32 4
  %34 = load ptr, ptr %33, align 8
  store ptr %34, ptr %13, align 8
  %35 = load ptr, ptr %13, align 8
  %36 = icmp ne ptr %35, null
  br i1 %36, label %37, label %67

37:                                               ; preds = %21
  %38 = load ptr, ptr %11, align 8
  %39 = icmp ne ptr %38, null
  br i1 %39, label %40, label %44

40:                                               ; preds = %37
  %41 = load ptr, ptr %13, align 8
  %42 = load ptr, ptr %11, align 8
  %43 = getelementptr inbounds %struct.node, ptr %42, i32 0, i32 4
  store ptr %41, ptr %43, align 8
  br label %48

44:                                               ; preds = %37
  %45 = load ptr, ptr %13, align 8
  %46 = load ptr, ptr %6, align 8
  %47 = getelementptr inbounds %struct.cache_set, ptr %46, i32 0, i32 2
  store ptr %45, ptr %47, align 8
  br label %48

48:                                               ; preds = %44, %40
  %49 = load ptr, ptr %11, align 8
  %50 = load ptr, ptr %13, align 8
  %51 = getelementptr inbounds %struct.node, ptr %50, i32 0, i32 5
  store ptr %49, ptr %51, align 8
  %52 = load ptr, ptr %12, align 8
  %53 = load ptr, ptr %6, align 8
  %54 = getelementptr inbounds %struct.cache_set, ptr %53, i32 0, i32 3
  %55 = load ptr, ptr %54, align 8
  %56 = getelementptr inbounds %struct.node, ptr %55, i32 0, i32 4
  store ptr %52, ptr %56, align 8
  %57 = load ptr, ptr %6, align 8
  %58 = getelementptr inbounds %struct.cache_set, ptr %57, i32 0, i32 3
  %59 = load ptr, ptr %58, align 8
  %60 = load ptr, ptr %12, align 8
  %61 = getelementptr inbounds %struct.node, ptr %60, i32 0, i32 5
  store ptr %59, ptr %61, align 8
  %62 = load ptr, ptr %12, align 8
  %63 = getelementptr inbounds %struct.node, ptr %62, i32 0, i32 4
  store ptr null, ptr %63, align 8
  %64 = load ptr, ptr %12, align 8
  %65 = load ptr, ptr %6, align 8
  %66 = getelementptr inbounds %struct.cache_set, ptr %65, i32 0, i32 3
  store ptr %64, ptr %66, align 8
  br label %67

67:                                               ; preds = %48, %21
  %68 = load i32, ptr %9, align 4
  %69 = load ptr, ptr %12, align 8
  %70 = getelementptr inbounds %struct.node, ptr %69, i32 0, i32 7
  %71 = load i32, ptr %70, align 4
  %72 = icmp uge i32 %68, %71
  br i1 %72, label %73, label %74

73:                                               ; preds = %67
  store i32 1, ptr %5, align 4
  br label %76

74:                                               ; preds = %67
  br label %75

75:                                               ; preds = %74, %4
  store i32 0, ptr %5, align 4
  br label %76

76:                                               ; preds = %75, %73
  %77 = load i32, ptr %5, align 4
  ret i32 %77
}

; Function Attrs: nounwind uwtable
define internal i32 @getkey(ptr noundef %0, i64 noundef %1) #0 {
  %3 = alloca i32, align 4
  %4 = alloca ptr, align 8
  %5 = alloca i64, align 8
  store ptr %0, ptr %4, align 8
  store i64 %1, ptr %5, align 8
  %6 = load ptr, ptr %4, align 8
  %7 = icmp ne ptr %6, null
  br i1 %7, label %8, label %23

8:                                                ; preds = %2
  %9 = load ptr, ptr %4, align 8
  %10 = getelementptr inbounds i8, ptr %9, i64 0
  %11 = load i8, ptr %10, align 1
  %12 = zext i8 %11 to i32
  %13 = load ptr, ptr %4, align 8
  %14 = getelementptr inbounds i8, ptr %13, i64 1
  %15 = load i8, ptr %14, align 1
  %16 = zext i8 %15 to i32
  %17 = shl i32 %16, 8
  %18 = or i32 %12, %17
  %19 = zext i32 %18 to i64
  %20 = load i64, ptr %5, align 8
  %21 = urem i64 %19, %20
  %22 = trunc i64 %21 to i32
  store i32 %22, ptr %3, align 4
  br label %24

23:                                               ; preds = %2
  store i32 0, ptr %3, align 4
  br label %24

24:                                               ; preds = %23, %8
  %25 = load i32, ptr %3, align 4
  ret i32 %25
}

; Function Attrs: nounwind uwtable
define internal i32 @cache_lookup_hash(ptr noundef %0, i64 noundef %1, ptr noundef %2, i32 noundef %3) #0 {
  %5 = alloca i32, align 4
  %6 = alloca ptr, align 8
  %7 = alloca i64, align 8
  %8 = alloca ptr, align 8
  %9 = alloca i32, align 4
  %10 = alloca i32, align 4
  %11 = alloca i32, align 4
  %12 = alloca ptr, align 8
  store ptr %0, ptr %6, align 8
  store i64 %1, ptr %7, align 8
  store ptr %2, ptr %8, align 8
  store i32 %3, ptr %9, align 4
  store i32 0, ptr %10, align 4
  store i32 1, ptr %11, align 4
  %13 = load ptr, ptr %6, align 8
  %14 = icmp ne ptr %13, null
  br i1 %14, label %17, label %15

15:                                               ; preds = %4
  call void (ptr, ...) @cli_dbgmsg(ptr noundef @.str.24)
  %16 = load i32, ptr %11, align 4
  store i32 %16, ptr %5, align 4
  br label %47

17:                                               ; preds = %4
  %18 = load ptr, ptr %6, align 8
  %19 = load ptr, ptr %8, align 8
  %20 = getelementptr inbounds %struct.CACHE, ptr %19, i32 0, i32 1
  %21 = load i32, ptr %20, align 8
  %22 = zext i32 %21 to i64
  %23 = call i32 @getkey(ptr noundef %18, i64 noundef %22)
  store i32 %23, ptr %10, align 4
  %24 = load ptr, ptr %8, align 8
  %25 = load i32, ptr %10, align 4
  %26 = zext i32 %25 to i64
  %27 = getelementptr inbounds %struct.CACHE, ptr %24, i64 %26
  store ptr %27, ptr %12, align 8
  %28 = load ptr, ptr %12, align 8
  %29 = getelementptr inbounds %struct.CACHE, ptr %28, i32 0, i32 3
  %30 = call i32 @pthread_mutex_lock(ptr noundef %29) #6
  %31 = icmp ne i32 %30, 0
  br i1 %31, label %32, label %34

32:                                               ; preds = %17
  call void (ptr, ...) @cli_errmsg(ptr noundef @.str.25)
  %33 = load i32, ptr %11, align 4
  store i32 %33, ptr %5, align 4
  br label %47

34:                                               ; preds = %17
  %35 = load ptr, ptr %12, align 8
  %36 = getelementptr inbounds %struct.CACHE, ptr %35, i32 0, i32 0
  %37 = load ptr, ptr %6, align 8
  %38 = load i64, ptr %7, align 8
  %39 = load i32, ptr %9, align 4
  %40 = call i32 @cacheset_lookup(ptr noundef %36, ptr noundef %37, i64 noundef %38, i32 noundef %39)
  %41 = icmp ne i32 %40, 0
  %42 = select i1 %41, i32 0, i32 1
  store i32 %42, ptr %11, align 4
  %43 = load ptr, ptr %12, align 8
  %44 = getelementptr inbounds %struct.CACHE, ptr %43, i32 0, i32 3
  %45 = call i32 @pthread_mutex_unlock(ptr noundef %44) #6
  %46 = load i32, ptr %11, align 4
  store i32 %46, ptr %5, align 4
  br label %47

47:                                               ; preds = %34, %32, %15
  %48 = load i32, ptr %5, align 4
  ret i32 %48
}

; Function Attrs: nounwind uwtable
define i32 @clean_cache_check(ptr noundef %0, i64 noundef %1, ptr noundef %2) #0 {
  %4 = alloca i32, align 4
  %5 = alloca ptr, align 8
  %6 = alloca i64, align 8
  %7 = alloca ptr, align 8
  %8 = alloca i32, align 4
  store ptr %0, ptr %5, align 8
  store i64 %1, ptr %6, align 8
  store ptr %2, ptr %7, align 8
  %9 = load ptr, ptr %7, align 8
  %10 = icmp ne ptr %9, null
  br i1 %10, label %11, label %23

11:                                               ; preds = %3
  %12 = load ptr, ptr %7, align 8
  %13 = getelementptr inbounds %struct.cli_ctx_tag, ptr %12, i32 0, i32 6
  %14 = load ptr, ptr %13, align 8
  %15 = icmp ne ptr %14, null
  br i1 %15, label %16, label %23

16:                                               ; preds = %11
  %17 = load ptr, ptr %7, align 8
  %18 = getelementptr inbounds %struct.cli_ctx_tag, ptr %17, i32 0, i32 6
  %19 = load ptr, ptr %18, align 8
  %20 = getelementptr inbounds %struct.cl_engine, ptr %19, i32 0, i32 35
  %21 = load ptr, ptr %20, align 8
  %22 = icmp ne ptr %21, null
  br i1 %22, label %24, label %23

23:                                               ; preds = %16, %11, %3
  store i32 1, ptr %4, align 4
  br label %122

24:                                               ; preds = %16
  %25 = load ptr, ptr %7, align 8
  %26 = getelementptr inbounds %struct.cli_ctx_tag, ptr %25, i32 0, i32 8
  %27 = load ptr, ptr %26, align 8
  %28 = getelementptr inbounds %struct.cl_scan_options, ptr %27, i32 0, i32 0
  %29 = load i32, ptr %28, align 4
  %30 = and i32 %29, 2
  %31 = icmp ne i32 %30, 0
  br i1 %31, label %32, label %33

32:                                               ; preds = %24
  call void (ptr, ...) @cli_dbgmsg(ptr noundef @.str.15)
  store i32 1, ptr %4, align 4
  br label %122

33:                                               ; preds = %24
  %34 = load ptr, ptr %7, align 8
  %35 = getelementptr inbounds %struct.cli_ctx_tag, ptr %34, i32 0, i32 6
  %36 = load ptr, ptr %35, align 8
  %37 = getelementptr inbounds %struct.cl_engine, ptr %36, i32 0, i32 9
  %38 = load i64, ptr %37, align 8
  %39 = and i64 %38, 1
  %40 = icmp ne i64 %39, 0
  br i1 %40, label %41, label %42

41:                                               ; preds = %33
  call void (ptr, ...) @cli_dbgmsg(ptr noundef @.str.16)
  store i32 1, ptr %4, align 4
  br label %122

42:                                               ; preds = %33
  %43 = load ptr, ptr %5, align 8
  %44 = load i64, ptr %6, align 8
  %45 = load ptr, ptr %7, align 8
  %46 = getelementptr inbounds %struct.cli_ctx_tag, ptr %45, i32 0, i32 6
  %47 = load ptr, ptr %46, align 8
  %48 = getelementptr inbounds %struct.cl_engine, ptr %47, i32 0, i32 35
  %49 = load ptr, ptr %48, align 8
  %50 = load ptr, ptr %7, align 8
  %51 = getelementptr inbounds %struct.cli_ctx_tag, ptr %50, i32 0, i32 13
  %52 = load i32, ptr %51, align 4
  %53 = call i32 @cache_lookup_hash(ptr noundef %43, i64 noundef %44, ptr noundef %49, i32 noundef %52)
  store i32 %53, ptr %8, align 4
  %54 = load ptr, ptr %5, align 8
  %55 = getelementptr inbounds i8, ptr %54, i64 0
  %56 = load i8, ptr %55, align 1
  %57 = zext i8 %56 to i32
  %58 = load ptr, ptr %5, align 8
  %59 = getelementptr inbounds i8, ptr %58, i64 1
  %60 = load i8, ptr %59, align 1
  %61 = zext i8 %60 to i32
  %62 = load ptr, ptr %5, align 8
  %63 = getelementptr inbounds i8, ptr %62, i64 2
  %64 = load i8, ptr %63, align 1
  %65 = zext i8 %64 to i32
  %66 = load ptr, ptr %5, align 8
  %67 = getelementptr inbounds i8, ptr %66, i64 3
  %68 = load i8, ptr %67, align 1
  %69 = zext i8 %68 to i32
  %70 = load ptr, ptr %5, align 8
  %71 = getelementptr inbounds i8, ptr %70, i64 4
  %72 = load i8, ptr %71, align 1
  %73 = zext i8 %72 to i32
  %74 = load ptr, ptr %5, align 8
  %75 = getelementptr inbounds i8, ptr %74, i64 5
  %76 = load i8, ptr %75, align 1
  %77 = zext i8 %76 to i32
  %78 = load ptr, ptr %5, align 8
  %79 = getelementptr inbounds i8, ptr %78, i64 6
  %80 = load i8, ptr %79, align 1
  %81 = zext i8 %80 to i32
  %82 = load ptr, ptr %5, align 8
  %83 = getelementptr inbounds i8, ptr %82, i64 7
  %84 = load i8, ptr %83, align 1
  %85 = zext i8 %84 to i32
  %86 = load ptr, ptr %5, align 8
  %87 = getelementptr inbounds i8, ptr %86, i64 8
  %88 = load i8, ptr %87, align 1
  %89 = zext i8 %88 to i32
  %90 = load ptr, ptr %5, align 8
  %91 = getelementptr inbounds i8, ptr %90, i64 9
  %92 = load i8, ptr %91, align 1
  %93 = zext i8 %92 to i32
  %94 = load ptr, ptr %5, align 8
  %95 = getelementptr inbounds i8, ptr %94, i64 10
  %96 = load i8, ptr %95, align 1
  %97 = zext i8 %96 to i32
  %98 = load ptr, ptr %5, align 8
  %99 = getelementptr inbounds i8, ptr %98, i64 11
  %100 = load i8, ptr %99, align 1
  %101 = zext i8 %100 to i32
  %102 = load ptr, ptr %5, align 8
  %103 = getelementptr inbounds i8, ptr %102, i64 12
  %104 = load i8, ptr %103, align 1
  %105 = zext i8 %104 to i32
  %106 = load ptr, ptr %5, align 8
  %107 = getelementptr inbounds i8, ptr %106, i64 13
  %108 = load i8, ptr %107, align 1
  %109 = zext i8 %108 to i32
  %110 = load ptr, ptr %5, align 8
  %111 = getelementptr inbounds i8, ptr %110, i64 14
  %112 = load i8, ptr %111, align 1
  %113 = zext i8 %112 to i32
  %114 = load ptr, ptr %5, align 8
  %115 = getelementptr inbounds i8, ptr %114, i64 15
  %116 = load i8, ptr %115, align 1
  %117 = zext i8 %116 to i32
  %118 = load i32, ptr %8, align 4
  %119 = icmp eq i32 %118, 1
  %120 = select i1 %119, ptr @.str.18, ptr @.str.19
  call void (ptr, ...) @cli_dbgmsg(ptr noundef @.str.17, i32 noundef %57, i32 noundef %61, i32 noundef %65, i32 noundef %69, i32 noundef %73, i32 noundef %77, i32 noundef %81, i32 noundef %85, i32 noundef %89, i32 noundef %93, i32 noundef %97, i32 noundef %101, i32 noundef %105, i32 noundef %109, i32 noundef %113, i32 noundef %117, ptr noundef %120)
  %121 = load i32, ptr %8, align 4
  store i32 %121, ptr %4, align 4
  br label %122

122:                                              ; preds = %42, %41, %32, %23
  %123 = load i32, ptr %4, align 4
  ret i32 %123
}