; Function Attrs: nounwind uwtable
define noundef i32 @clean_cache_check(ptr noundef readonly %0, i64 noundef %1, ptr noundef readonly %2) local_unnamed_addr #0 {
  %4 = alloca [2 x i64], align 16
  %.not = icmp eq ptr %2, null
  br i1 %.not, label %105, label %5

5:                                                ; preds = %3
  %6 = getelementptr inbounds i8, ptr %2, i64 48
  %7 = load ptr, ptr %6, align 8
  %.not30 = icmp eq ptr %7, null
  br i1 %.not30, label %105, label %8

8:                                                ; preds = %5
  %9 = getelementptr inbounds i8, ptr %7, i64 232
  %10 = load ptr, ptr %9, align 8
  %.not31 = icmp eq ptr %10, null
  br i1 %.not31, label %105, label %11

11:                                               ; preds = %8
  %12 = getelementptr inbounds i8, ptr %2, i64 64
  %13 = load ptr, ptr %12, align 8
  %14 = load i32, ptr %13, align 4
  %15 = and i32 %14, 2
  %.not32 = icmp eq i32 %15, 0
  br i1 %.not32, label %17, label %16

16:                                               ; preds = %11
  tail call void (ptr, ...) @cli_dbgmsg(ptr noundef nonnull @.str.15) #9
  br label %105

17:                                               ; preds = %11
  %18 = getelementptr inbounds i8, ptr %7, i64 48
  %19 = load i64, ptr %18, align 8
  %20 = and i64 %19, 1
  %.not33 = icmp eq i64 %20, 0
  br i1 %.not33, label %22, label %21

21:                                               ; preds = %17
  tail call void (ptr, ...) @cli_dbgmsg(ptr noundef nonnull @.str.16) #9
  br label %105

22:                                               ; preds = %17
  %23 = getelementptr inbounds i8, ptr %2, i64 92
  %24 = load i32, ptr %23, align 4
  %.not.i = icmp eq ptr %0, null
  br i1 %.not.i, label %25, label %26

25:                                               ; preds = %22
  tail call void (ptr, ...) @cli_dbgmsg(ptr noundef nonnull @.str.24) #9
  br label %cache_lookup_hash.exit

26:                                               ; preds = %22
  %27 = getelementptr inbounds i8, ptr %10, i64 32
  %28 = load i32, ptr %27, align 8
  %.val.i = load i16, ptr %0, align 1
  %29 = zext i16 %.val.i to i32
  %30 = urem i32 %29, %28
  %31 = zext nneg i32 %30 to i64
  %32 = getelementptr inbounds %struct.CACHE, ptr %10, i64 %31
  %33 = getelementptr inbounds i8, ptr %32, i64 40
  %34 = tail call i32 @pthread_mutex_lock(ptr noundef nonnull %33) #9
  %.not15.i = icmp eq i32 %34, 0
  br i1 %.not15.i, label %36, label %35

35:                                               ; preds = %26
  tail call void (ptr, ...) @cli_errmsg(ptr noundef nonnull @.str.25) #9
  br label %cache_lookup_hash.exit

36:                                               ; preds = %26
  call void @llvm.lifetime.start.p0(i64 16, ptr nonnull %4)
  call void @llvm.memcpy.p0.p0.i64(ptr noundef nonnull align 16 dereferenceable(16) %4, ptr noundef nonnull align 1 dereferenceable(16) %0, i64 16, i1 false)
  %37 = call fastcc i32 @splay(ptr noundef nonnull %4, i64 noundef %1, ptr noundef nonnull %32), !range !4
  %.not.i.i = icmp eq i32 %37, 0
  br i1 %.not.i.i, label %56, label %38

38:                                               ; preds = %36
  %39 = getelementptr inbounds i8, ptr %32, i64 8
  %40 = load ptr, ptr %39, align 8
  %41 = getelementptr inbounds i8, ptr %40, i64 40
  %42 = load ptr, ptr %41, align 8
  %.not25.i.i = icmp eq ptr %42, null
  br i1 %.not25.i.i, label %53, label %43

43:                                               ; preds = %38
  %44 = getelementptr inbounds i8, ptr %40, i64 48
  %45 = load ptr, ptr %44, align 8
  %.not26.i.i = icmp eq ptr %45, null
  %46 = getelementptr inbounds i8, ptr %32, i64 16
  %47 = getelementptr inbounds i8, ptr %45, i64 40
  %.sink.i.i = select i1 %.not26.i.i, ptr %46, ptr %47
  store ptr %42, ptr %.sink.i.i, align 8
  %48 = getelementptr inbounds i8, ptr %42, i64 48
  store ptr %45, ptr %48, align 8
  %49 = getelementptr inbounds i8, ptr %32, i64 24
  %50 = load ptr, ptr %49, align 8
  %51 = getelementptr inbounds i8, ptr %50, i64 40
  store ptr %40, ptr %51, align 8
  %52 = load ptr, ptr %49, align 8
  store ptr %52, ptr %44, align 8
  store ptr null, ptr %41, align 8
  store ptr %40, ptr %49, align 8
  br label %53

53:                                               ; preds = %43, %38
  %54 = getelementptr inbounds i8, ptr %40, i64 60
  %55 = load i32, ptr %54, align 4
  %.not27.i.i = icmp ugt i32 %55, %24
  br i1 %.not27.i.i, label %56, label %cacheset_lookup.exit.i

56:                                               ; preds = %53, %36
  br label %cacheset_lookup.exit.i

cacheset_lookup.exit.i:                           ; preds = %56, %53
  %.0.i.i = phi i32 [ 1, %56 ], [ 0, %53 ]
  call void @llvm.lifetime.end.p0(i64 16, ptr nonnull %4)
  %57 = tail call i32 @pthread_mutex_unlock(ptr noundef nonnull %33) #9
  br label %cache_lookup_hash.exit

cache_lookup_hash.exit:                           ; preds = %25, %35, %cacheset_lookup.exit.i
  %.0.i = phi i32 [ 1, %35 ], [ %.0.i.i, %cacheset_lookup.exit.i ], [ 1, %25 ]
  %58 = load i8, ptr %0, align 1
  %59 = zext i8 %58 to i32
  %60 = getelementptr inbounds i8, ptr %0, i64 1
  %61 = load i8, ptr %60, align 1
  %62 = zext i8 %61 to i32
  %63 = getelementptr inbounds i8, ptr %0, i64 2
  %64 = load i8, ptr %63, align 1
  %65 = zext i8 %64 to i32
  %66 = getelementptr inbounds i8, ptr %0, i64 3
  %67 = load i8, ptr %66, align 1
  %68 = zext i8 %67 to i32
  %69 = getelementptr inbounds i8, ptr %0, i64 4
  %70 = load i8, ptr %69, align 1
  %71 = zext i8 %70 to i32
  %72 = getelementptr inbounds i8, ptr %0, i64 5
  %73 = load i8, ptr %72, align 1
  %74 = zext i8 %73 to i32
  %75 = getelementptr inbounds i8, ptr %0, i64 6
  %76 = load i8, ptr %75, align 1
  %77 = zext i8 %76 to i32
  %78 = getelementptr inbounds i8, ptr %0, i64 7
  %79 = load i8, ptr %78, align 1
  %80 = zext i8 %79 to i32
  %81 = getelementptr inbounds i8, ptr %0, i64 8
  %82 = load i8, ptr %81, align 1
  %83 = zext i8 %82 to i32
  %84 = getelementptr inbounds i8, ptr %0, i64 9
  %85 = load i8, ptr %84, align 1
  %86 = zext i8 %85 to i32
  %87 = getelementptr inbounds i8, ptr %0, i64 10
  %88 = load i8, ptr %87, align 1
  %89 = zext i8 %88 to i32
  %90 = getelementptr inbounds i8, ptr %0, i64 11
  %91 = load i8, ptr %90, align 1
  %92 = zext i8 %91 to i32
  %93 = getelementptr inbounds i8, ptr %0, i64 12
  %94 = load i8, ptr %93, align 1
  %95 = zext i8 %94 to i32
  %96 = getelementptr inbounds i8, ptr %0, i64 13
  %97 = load i8, ptr %96, align 1
  %98 = zext i8 %97 to i32
  %99 = getelementptr inbounds i8, ptr %0, i64 14
  %100 = load i8, ptr %99, align 1
  %101 = zext i8 %100 to i32
  %102 = getelementptr inbounds i8, ptr %0, i64 15
  %103 = load i8, ptr %102, align 1
  %104 = zext i8 %103 to i32
  %.not34 = icmp eq i32 %.0.i, 0
  %spec.select = select i1 %.not34, ptr @.str.19, ptr @.str.18
  tail call void (ptr, ...) @cli_dbgmsg(ptr noundef nonnull @.str.17, i32 noundef %59, i32 noundef %62, i32 noundef %65, i32 noundef %68, i32 noundef %71, i32 noundef %74, i32 noundef %77, i32 noundef %80, i32 noundef %83, i32 noundef %86, i32 noundef %89, i32 noundef %92, i32 noundef %95, i32 noundef %98, i32 noundef %101, i32 noundef %104, ptr noundef nonnull %spec.select) #9
  br label %105

105:                                              ; preds = %3, %5, %8, %cache_lookup_hash.exit, %21, %16
  %.0 = phi i32 [ 1, %16 ], [ 1, %21 ], [ %.0.i, %cache_lookup_hash.exit ], [ 1, %8 ], [ 1, %5 ], [ 1, %3 ]
  ret i32 %.0
}